; Function Attrs: mustprogress uwtable
define dso_local noundef ptr @_ZNK7testing8UnitTest17current_test_infoEv(ptr noundef nonnull align 8 dereferenceable(72) %0) local_unnamed_addr #3 align 2 personality ptr @__gxx_personality_v0 {
  %2 = getelementptr inbounds nuw i8, ptr %0, i64 8
  tail call void @_ZN7testing8internal9MutexBase4LockEv(ptr noundef nonnull align 8 dereferenceable(56) %2)
  %3 = getelementptr inbounds nuw i8, ptr %0, i64 64
  %4 = load ptr, ptr %3, align 8, !tbaa !57
  %5 = getelementptr inbounds nuw i8, ptr %4, i64 480
  %6 = load ptr, ptr %5, align 8, !tbaa !62
  invoke void @_ZN7testing8internal9MutexBase6UnlockEv(ptr noundef nonnull align 8 dereferenceable(56) %2)
          to label %_ZN7testing8internal14GTestMutexLockD2Ev.exit unwind label %7

7:                                                ; preds = %1
  %8 = landingpad { ptr, i32 }
          catch ptr null
  %9 = extractvalue { ptr, i32 } %8, 0
  tail call void @__clang_call_terminate(ptr %9) #63
  unreachable

_ZN7testing8internal14GTestMutexLockD2Ev.exit:    ; preds = %1
  ret ptr %6
}